; ModuleID = '16/227.c'
source_filename = "16/227.c"
target datalayout = "e-m:e-p270:32:32-p271:32:32-p272:64:64-i64:64-f80:128-n8:16:32:64-S128"
target triple = "x86_64-pc-linux-gnu"

@.str = private unnamed_addr constant [3 x i8] c"%d\00", align 1
@.str.1 = private unnamed_addr constant [3 x i8] c"0\0A\00", align 1

; Function Attrs: noinline nounwind uwtable
define dso_local i32 @e(i32 %0) #0 {
  %2 = alloca i32, align 4
  %3 = alloca i32, align 4
  store i32 %0, i32* %3, align 4
  %4 = load i32, i32* %3, align 4
  %5 = icmp eq i32 %4, 0
  br i1 %5, label %6, label %7

6:                                                ; preds = %1
  store i32 1, i32* %2, align 4
  br label %12

7:                                                ; preds = %1
  %8 = load i32, i32* %3, align 4
  %9 = sub nsw i32 %8, 1
  %10 = call i32 @e(i32 %9)
  %11 = mul nsw i32 10, %10
  store i32 %11, i32* %2, align 4
  br label %12

12:                                               ; preds = %7, %6
  %13 = load i32, i32* %2, align 4
  ret i32 %13
}

; Function Attrs: noinline nounwind uwtable
define dso_local i32 @main() #0 {
  %1 = alloca i32, align 4
  %2 = alloca i32, align 4
  %3 = alloca [4 x i32], align 16
  %4 = alloca i32, align 4
  %5 = alloca i32, align 4
  %6 = alloca i32, align 4
  store i32 0, i32* %1, align 4
  store i32 0, i32* %4, align 4
  store i32 0, i32* %5, align 4
  store i32 0, i32* %6, align 4
  %7 = call i32 (i8*, ...) @__isoc99_scanf(i8* getelementptr inbounds ([3 x i8], [3 x i8]* @.str, i64 0, i64 0), i32* %2)
  %8 = load i32, i32* %2, align 4
  %9 = icmp ne i32 %8, 0
  br i1 %9, label %10, label %56

10:                                               ; preds = %0
  br label %11

11:                                               ; preds = %19, %10
  %12 = load i32, i32* %2, align 4
  %13 = load i32, i32* %4, align 4
  %14 = call i32 @e(i32 %13)
  %15 = mul nsw i32 1, %14
  %16 = srem i32 %12, %15
  %17 = load i32, i32* %2, align 4
  %18 = icmp ne i32 %16, %17
  br i1 %18, label %19, label %41

19:                                               ; preds = %11
  %20 = load i32, i32* %2, align 4
  %21 = load i32, i32* %4, align 4
  %22 = add nsw i32 %21, 1
  %23 = call i32 @e(i32 %22)
  %24 = mul nsw i32 1, %23
  %25 = srem i32 %20, %24
  %26 = load i32, i32* %2, align 4
  %27 = load i32, i32* %4, align 4
  %28 = call i32 @e(i32 %27)
  %29 = mul nsw i32 1, %28
  %30 = srem i32 %26, %29
  %31 = sub nsw i32 %25, %30
  %32 = load i32, i32* %4, align 4
  %33 = call i32 @e(i32 %32)
  %34 = mul nsw i32 1, %33
  %35 = sdiv i32 %31, %34
  %36 = load i32, i32* %4, align 4
  %37 = sext i32 %36 to i64
  %38 = getelementptr inbounds [4 x i32], [4 x i32]* %3, i64 0, i64 %37
  store i32 %35, i32* %38, align 4
  %39 = load i32, i32* %4, align 4
  %40 = add nsw i32 %39, 1
  store i32 %40, i32* %4, align 4
  br label %11

41:                                               ; preds = %11
  br label %42

42:                                               ; preds = %47, %41
  %43 = load i32, i32* %5, align 4
  %44 = load i32, i32* %4, align 4
  %45 = sub nsw i32 %44, 1
  %46 = icmp sle i32 %43, %45
  br i1 %46, label %47, label %55

47:                                               ; preds = %42
  %48 = load i32, i32* %5, align 4
  %49 = sext i32 %48 to i64
  %50 = getelementptr inbounds [4 x i32], [4 x i32]* %3, i64 0, i64 %49
  %51 = load i32, i32* %50, align 4
  %52 = call i32 (i8*, ...) @printf(i8* getelementptr inbounds ([3 x i8], [3 x i8]* @.str, i64 0, i64 0), i32 %51)
  %53 = load i32, i32* %5, align 4
  %54 = add nsw i32 %53, 1
  store i32 %54, i32* %5, align 4
  br label %42

55:                                               ; preds = %42
  br label %58

56:                                               ; preds = %0
  %57 = call i32 (i8*, ...) @printf(i8* getelementptr inbounds ([3 x i8], [3 x i8]* @.str.1, i64 0, i64 0))
  br label %58

58:                                               ; preds = %56, %55
  ret i32 0
}

declare dso_local i32 @__isoc99_scanf(i8*, ...) #1

declare dso_local i32 @printf(i8*, ...) #1


!llvm.module.flags = !{!0}
!llvm.ident = !{!1}

!0 = !{i32 1, !"wchar_size", i32 4}
!1 = !{!"clang version 10.0.0-4ubuntu1 "}
